target datalayout = "e-m:e-p270:32:32-p271:32:32-p272:64:64-i64:64-i128:128-f80:128-n8:16:32:64-S128"
target triple = "x86_64-pc-linux-gnu"

%"struct.duckdb_yyjson::yyjson_alc" = type { ptr, ptr, ptr, ptr }
%"struct.duckdb_yyjson::dyn_ctx" = type { %"struct.duckdb_yyjson::dyn_chunk", %"struct.duckdb_yyjson::dyn_chunk" }
%"struct.duckdb_yyjson::dyn_chunk" = type { i64, ptr }

@__const._ZN13duckdb_yyjsonL10dyn_mallocEPvm.def = private unnamed_addr constant %"struct.duckdb_yyjson::yyjson_alc" { ptr @_ZN13duckdb_yyjsonL14default_mallocEPvm, ptr @_ZN13duckdb_yyjsonL15default_reallocEPvS0_mm, ptr @_ZN13duckdb_yyjsonL12default_freeEPvS0_, ptr null }, align 8

; Function Attrs: alwaysinline mustprogress nounwind uwtable
define internal noundef zeroext i1 @_ZN13duckdb_yyjsonL12size_is_pow2Em(i64 noundef %0) #7 {
  %2 = alloca i64, align 8
  store i64 %0, ptr %2, align 8, !tbaa !9
  %3 = load i64, ptr %2, align 8, !tbaa !9
  %4 = load i64, ptr %2, align 8, !tbaa !9
  %5 = sub i64 %4, 1
  %6 = and i64 %3, %5
  %7 = icmp eq i64 %6, 0
  ret i1 %7
}

; Function Attrs: alwaysinline mustprogress nounwind uwtable
define internal noundef i64 @_ZN13duckdb_yyjsonL13size_align_upEmm(i64 noundef %0, i64 noundef %1) #7 {
  %3 = alloca i64, align 8
  %4 = alloca i64, align 8
  %5 = alloca i64, align 8
  store i64 %0, ptr %4, align 8, !tbaa !9
  store i64 %1, ptr %5, align 8, !tbaa !9
  %6 = load i64, ptr %5, align 8, !tbaa !9
  %7 = call noundef zeroext i1 @_ZN13duckdb_yyjsonL12size_is_pow2Em(i64 noundef %6)
  br i1 %7, label %8, label %17

8:                                                ; preds = %2
  %9 = load i64, ptr %4, align 8, !tbaa !9
  %10 = load i64, ptr %5, align 8, !tbaa !9
  %11 = sub i64 %10, 1
  %12 = add i64 %9, %11
  %13 = load i64, ptr %5, align 8, !tbaa !9
  %14 = sub i64 %13, 1
  %15 = xor i64 %14, -1
  %16 = and i64 %12, %15
  store i64 %16, ptr %3, align 8
  br label %29

17:                                               ; preds = %2
  %18 = load i64, ptr %4, align 8, !tbaa !9
  %19 = load i64, ptr %5, align 8, !tbaa !9
  %20 = add i64 %18, %19
  %21 = load i64, ptr %4, align 8, !tbaa !9
  %22 = load i64, ptr %5, align 8, !tbaa !9
  %23 = add i64 %21, %22
  %24 = sub i64 %23, 1
  %25 = load i64, ptr %5, align 8, !tbaa !9
  %26 = urem i64 %24, %25
  %27 = sub i64 %20, %26
  %28 = sub i64 %27, 1
  store i64 %28, ptr %3, align 8
  br label %29

29:                                               ; preds = %17, %8
  %30 = load i64, ptr %3, align 8
  ret i64 %30
}

; Function Attrs: alwaysinline mustprogress nounwind uwtable
define internal void @_ZN13duckdb_yyjsonL18dyn_chunk_list_addEPNS_9dyn_chunkES1_(ptr noundef %0, ptr noundef %1) #7 {
  %3 = alloca ptr, align 8
  %4 = alloca ptr, align 8
  store ptr %0, ptr %3, align 8, !tbaa !35
  store ptr %1, ptr %4, align 8, !tbaa !35
  %5 = load ptr, ptr %3, align 8, !tbaa !35
  %6 = getelementptr inbounds nuw %"struct.duckdb_yyjson::dyn_chunk", ptr %5, i32 0, i32 1
  %7 = load ptr, ptr %6, align 8, !tbaa !37
  %8 = load ptr, ptr %4, align 8, !tbaa !35
  %9 = getelementptr inbounds nuw %"struct.duckdb_yyjson::dyn_chunk", ptr %8, i32 0, i32 1
  store ptr %7, ptr %9, align 8, !tbaa !37
  %10 = load ptr, ptr %4, align 8, !tbaa !35
  %11 = load ptr, ptr %3, align 8, !tbaa !35
  %12 = getelementptr inbounds nuw %"struct.duckdb_yyjson::dyn_chunk", ptr %11, i32 0, i32 1
  store ptr %10, ptr %12, align 8, !tbaa !37
  ret void
}

; Function Attrs: alwaysinline mustprogress uwtable
define internal noundef zeroext i1 @_ZN13duckdb_yyjsonL14dyn_size_alignEPm(ptr noundef %0) #5 {
  %2 = alloca i1, align 1
  %3 = alloca ptr, align 8
  %4 = alloca i64, align 8
  %5 = alloca i32, align 4
  store ptr %0, ptr %3, align 8, !tbaa !107
  call void @llvm.lifetime.start.p0(i64 8, ptr %4) #15
  %6 = load ptr, ptr %3, align 8, !tbaa !107
  %7 = load i64, ptr %6, align 8, !tbaa !9
  %8 = add i64 %7, 16
  store i64 %8, ptr %4, align 8, !tbaa !9
  %9 = load i64, ptr %4, align 8, !tbaa !9
  %10 = call noundef i64 @_ZN13duckdb_yyjsonL13size_align_upEmm(i64 noundef %9, i64 noundef 4096)
  store i64 %10, ptr %4, align 8, !tbaa !9
  %11 = load i64, ptr %4, align 8, !tbaa !9
  %12 = load ptr, ptr %3, align 8, !tbaa !107
  %13 = load i64, ptr %12, align 8, !tbaa !9
  %14 = icmp ult i64 %11, %13
  %15 = xor i1 %14, true
  %16 = xor i1 %15, true
  %17 = zext i1 %16 to i64
  %18 = call i64 @llvm.expect.i64(i64 %17, i64 0)
  %19 = icmp ne i64 %18, 0
  br i1 %19, label %20, label %21

20:                                               ; preds = %1
  store i1 false, ptr %2, align 1
  store i32 1, ptr %5, align 4
  br label %24

21:                                               ; preds = %1
  %22 = load i64, ptr %4, align 8, !tbaa !9
  %23 = load ptr, ptr %3, align 8, !tbaa !107
  store i64 %22, ptr %23, align 8, !tbaa !9
  store i1 true, ptr %2, align 1
  store i32 1, ptr %5, align 4
  br label %24

24:                                               ; preds = %21, %20
  call void @llvm.lifetime.end.p0(i64 8, ptr %4) #15
  %25 = load i1, ptr %2, align 1
  ret i1 %25
}

; Function Attrs: mustprogress uwtable
define internal noundef ptr @_ZN13duckdb_yyjsonL10dyn_mallocEPvm(ptr noundef %0, i64 noundef %1) #1 {
  %3 = alloca ptr, align 8
  %4 = alloca ptr, align 8
  %5 = alloca i64, align 8
  %6 = alloca %"struct.duckdb_yyjson::yyjson_alc", align 8
  %7 = alloca ptr, align 8
  %8 = alloca ptr, align 8
  %9 = alloca ptr, align 8
  %10 = alloca i32, align 4
  store ptr %0, ptr %4, align 8, !tbaa !8
  store i64 %1, ptr %5, align 8, !tbaa !9
  call void @llvm.lifetime.start.p0(i64 32, ptr %6) #15
  call void @llvm.memcpy.p0.p0.i64(ptr align 8 %6, ptr align 8 @__const._ZN13duckdb_yyjsonL10dyn_mallocEPvm.def, i64 32, i1 false)
  call void @llvm.lifetime.start.p0(i64 8, ptr %7) #15
  %11 = load ptr, ptr %4, align 8, !tbaa !8
  store ptr %11, ptr %7, align 8, !tbaa !8
  call void @llvm.lifetime.start.p0(i64 8, ptr %8) #15
  call void @llvm.lifetime.start.p0(i64 8, ptr %9) #15
  %12 = call noundef zeroext i1 @_ZN13duckdb_yyjsonL14dyn_size_alignEPm(ptr noundef %5)
  %13 = xor i1 %12, true
  %14 = xor i1 %13, true
  %15 = xor i1 %14, true
  %16 = zext i1 %15 to i64
  %17 = call i64 @llvm.expect.i64(i64 %16, i64 0)
  %18 = icmp ne i64 %17, 0
  br i1 %18, label %19, label %20

19:                                               ; preds = %2
  store ptr null, ptr %3, align 8
  store i32 1, ptr %10, align 4
  br label %115

20:                                               ; preds = %2
  %21 = load ptr, ptr %7, align 8, !tbaa !8
  %22 = getelementptr inbounds nuw %"struct.duckdb_yyjson::dyn_ctx", ptr %21, i32 0, i32 0
  %23 = getelementptr inbounds nuw %"struct.duckdb_yyjson::dyn_chunk", ptr %22, i32 0, i32 1
  %24 = load ptr, ptr %23, align 8, !tbaa !31
  %25 = icmp ne ptr %24, null
  br i1 %25, label %53, label %26

26:                                               ; preds = %20
  %27 = getelementptr inbounds nuw %"struct.duckdb_yyjson::yyjson_alc", ptr %6, i32 0, i32 0
  %28 = load ptr, ptr %27, align 8, !tbaa !22
  %29 = getelementptr inbounds nuw %"struct.duckdb_yyjson::yyjson_alc", ptr %6, i32 0, i32 3
  %30 = load ptr, ptr %29, align 8, !tbaa !26
  %31 = load i64, ptr %5, align 8, !tbaa !9
  %32 = call noundef ptr %28(ptr noundef %30, i64 noundef %31)
  store ptr %32, ptr %8, align 8, !tbaa !35
  %33 = load ptr, ptr %8, align 8, !tbaa !35
  %34 = icmp ne ptr %33, null
  %35 = xor i1 %34, true
  %36 = xor i1 %35, true
  %37 = xor i1 %36, true
  %38 = zext i1 %37 to i64
  %39 = call i64 @llvm.expect.i64(i64 %38, i64 0)
  %40 = icmp ne i64 %39, 0
  br i1 %40, label %41, label %42

41:                                               ; preds = %26
  store ptr null, ptr %3, align 8
  store i32 1, ptr %10, align 4
  br label %115

42:                                               ; preds = %26
  %43 = load i64, ptr %5, align 8, !tbaa !9
  %44 = load ptr, ptr %8, align 8, !tbaa !35
  %45 = getelementptr inbounds nuw %"struct.duckdb_yyjson::dyn_chunk", ptr %44, i32 0, i32 0
  store i64 %43, ptr %45, align 8, !tbaa !36
  %46 = load ptr, ptr %8, align 8, !tbaa !35
  %47 = getelementptr inbounds nuw %"struct.duckdb_yyjson::dyn_chunk", ptr %46, i32 0, i32 1
  store ptr null, ptr %47, align 8, !tbaa !37
  %48 = load ptr, ptr %7, align 8, !tbaa !8
  %49 = getelementptr inbounds nuw %"struct.duckdb_yyjson::dyn_ctx", ptr %48, i32 0, i32 1
  %50 = load ptr, ptr %8, align 8, !tbaa !35
  call void @_ZN13duckdb_yyjsonL18dyn_chunk_list_addEPNS_9dyn_chunkES1_(ptr noundef %49, ptr noundef %50)
  %51 = load ptr, ptr %8, align 8, !tbaa !35
  %52 = getelementptr inbounds %"struct.duckdb_yyjson::dyn_chunk", ptr %51, i64 1
  store ptr %52, ptr %3, align 8
  store i32 1, ptr %10, align 4
  br label %115

53:                                               ; preds = %20
  %54 = load ptr, ptr %7, align 8, !tbaa !8
  %55 = getelementptr inbounds nuw %"struct.duckdb_yyjson::dyn_ctx", ptr %54, i32 0, i32 0
  store ptr %55, ptr %9, align 8, !tbaa !35
  br label %56

56:                                               ; preds = %113, %53
  br label %57

57:                                               ; preds = %56
  %58 = load ptr, ptr %9, align 8, !tbaa !35
  %59 = getelementptr inbounds nuw %"struct.duckdb_yyjson::dyn_chunk", ptr %58, i32 0, i32 1
  %60 = load ptr, ptr %59, align 8, !tbaa !37
  store ptr %60, ptr %8, align 8, !tbaa !35
  %61 = load ptr, ptr %8, align 8, !tbaa !35
  %62 = getelementptr inbounds nuw %"struct.duckdb_yyjson::dyn_chunk", ptr %61, i32 0, i32 0
  %63 = load i64, ptr %62, align 8, !tbaa !36
  %64 = load i64, ptr %5, align 8, !tbaa !9
  %65 = icmp uge i64 %63, %64
  br i1 %65, label %66, label %77

66:                                               ; preds = %57
  %67 = load ptr, ptr %8, align 8, !tbaa !35
  %68 = getelementptr inbounds nuw %"struct.duckdb_yyjson::dyn_chunk", ptr %67, i32 0, i32 1
  %69 = load ptr, ptr %68, align 8, !tbaa !37
  %70 = load ptr, ptr %9, align 8, !tbaa !35
  %71 = getelementptr inbounds nuw %"struct.duckdb_yyjson::dyn_chunk", ptr %70, i32 0, i32 1
  store ptr %69, ptr %71, align 8, !tbaa !37
  %72 = load ptr, ptr %7, align 8, !tbaa !8
  %73 = getelementptr inbounds nuw %"struct.duckdb_yyjson::dyn_ctx", ptr %72, i32 0, i32 1
  %74 = load ptr, ptr %8, align 8, !tbaa !35
  call void @_ZN13duckdb_yyjsonL18dyn_chunk_list_addEPNS_9dyn_chunkES1_(ptr noundef %73, ptr noundef %74)
  %75 = load ptr, ptr %8, align 8, !tbaa !35
  %76 = getelementptr inbounds %"struct.duckdb_yyjson::dyn_chunk", ptr %75, i64 1
  store ptr %76, ptr %3, align 8
  store i32 1, ptr %10, align 4
  br label %115

77:                                               ; preds = %57
  %78 = load ptr, ptr %8, align 8, !tbaa !35
  %79 = getelementptr inbounds nuw %"struct.duckdb_yyjson::dyn_chunk", ptr %78, i32 0, i32 1
  %80 = load ptr, ptr %79, align 8, !tbaa !37
  %81 = icmp ne ptr %80, null
  br i1 %81, label %113, label %82

82:                                               ; preds = %77
  %83 = getelementptr inbounds nuw %"struct.duckdb_yyjson::yyjson_alc", ptr %6, i32 0, i32 1
  %84 = load ptr, ptr %83, align 8, !tbaa !24
  %85 = getelementptr inbounds nuw %"struct.duckdb_yyjson::yyjson_alc", ptr %6, i32 0, i32 3
  %86 = load ptr, ptr %85, align 8, !tbaa !26
  %87 = load ptr, ptr %8, align 8, !tbaa !35
  %88 = load ptr, ptr %8, align 8, !tbaa !35
  %89 = getelementptr inbounds nuw %"struct.duckdb_yyjson::dyn_chunk", ptr %88, i32 0, i32 0
  %90 = load i64, ptr %89, align 8, !tbaa !36
  %91 = load i64, ptr %5, align 8, !tbaa !9
  %92 = call noundef ptr %84(ptr noundef %86, ptr noundef %87, i64 noundef %90, i64 noundef %91)
  store ptr %92, ptr %8, align 8, !tbaa !35
  %93 = load ptr, ptr %8, align 8, !tbaa !35
  %94 = icmp ne ptr %93, null
  %95 = xor i1 %94, true
  %96 = xor i1 %95, true
  %97 = xor i1 %96, true
  %98 = zext i1 %97 to i64
  %99 = call i64 @llvm.expect.i64(i64 %98, i64 0)
  %100 = icmp ne i64 %99, 0
  br i1 %100, label %101, label %102

101:                                              ; preds = %82
  store ptr null, ptr %3, align 8
  store i32 1, ptr %10, align 4
  br label %115

102:                                              ; preds = %82
  %103 = load ptr, ptr %9, align 8, !tbaa !35
  %104 = getelementptr inbounds nuw %"struct.duckdb_yyjson::dyn_chunk", ptr %103, i32 0, i32 1
  store ptr null, ptr %104, align 8, !tbaa !37
  %105 = load i64, ptr %5, align 8, !tbaa !9
  %106 = load ptr, ptr %8, align 8, !tbaa !35
  %107 = getelementptr inbounds nuw %"struct.duckdb_yyjson::dyn_chunk", ptr %106, i32 0, i32 0
  store i64 %105, ptr %107, align 8, !tbaa !36
  %108 = load ptr, ptr %7, align 8, !tbaa !8
  %109 = getelementptr inbounds nuw %"struct.duckdb_yyjson::dyn_ctx", ptr %108, i32 0, i32 1
  %110 = load ptr, ptr %8, align 8, !tbaa !35
  call void @_ZN13duckdb_yyjsonL18dyn_chunk_list_addEPNS_9dyn_chunkES1_(ptr noundef %109, ptr noundef %110)
  %111 = load ptr, ptr %8, align 8, !tbaa !35
  %112 = getelementptr inbounds %"struct.duckdb_yyjson::dyn_chunk", ptr %111, i64 1
  store ptr %112, ptr %3, align 8
  store i32 1, ptr %10, align 4
  br label %115

113:                                              ; preds = %77
  %114 = load ptr, ptr %8, align 8, !tbaa !35
  store ptr %114, ptr %9, align 8, !tbaa !35
  br label %56, !llvm.loop !38

115:                                              ; preds = %102, %101, %66, %42, %41, %19
  call void @llvm.lifetime.end.p0(i64 8, ptr %9) #15
  call void @llvm.lifetime.end.p0(i64 8, ptr %8) #15
  call void @llvm.lifetime.end.p0(i64 8, ptr %7) #15
  call void @llvm.lifetime.end.p0(i64 32, ptr %6) #15
  %116 = load ptr, ptr %3, align 8
  ret ptr %116
}