; Function Attrs: mustprogress nounwind uwtable
define internal noundef ptr @_ZN13duckdb_yyjsonL10dyn_mallocEPvm(ptr noundef captures(none) %0, i64 noundef %1) #8 {
  %3 = add i64 %1, 4111
  %4 = and i64 %3, -4096
  %.not44 = icmp ult i64 %4, %1
  br i1 %.not44, label %_ZN13duckdb_yyjsonL14dyn_size_alignEPm.exit, label %5, !prof !3

5:                                                ; preds = %2
  %6 = getelementptr inbounds nuw i8, ptr %0, i64 8
  %7 = load ptr, ptr %6, align 8, !tbaa !28
  %.not = icmp eq ptr %7, null
  br i1 %.not, label %8, label %.preheader

8:                                                ; preds = %5
  %9 = tail call noalias noundef ptr @malloc(i64 noundef %4) #29
  %.not32 = icmp eq ptr %9, null
  br i1 %.not32, label %_ZN13duckdb_yyjsonL14dyn_size_alignEPm.exit, label %10, !prof !3

10:                                               ; preds = %8
  store i64 %4, ptr %9, align 8, !tbaa !32
  %11 = getelementptr inbounds nuw i8, ptr %9, i64 8
  %12 = getelementptr inbounds nuw i8, ptr %0, i64 24
  %13 = load ptr, ptr %12, align 8, !tbaa !33
  store ptr %13, ptr %11, align 8, !tbaa !33
  store ptr %9, ptr %12, align 8, !tbaa !33
  %14 = getelementptr inbounds nuw i8, ptr %9, i64 16
  br label %_ZN13duckdb_yyjsonL14dyn_size_alignEPm.exit

.preheader:                                       ; preds = %5, %24
  %15 = phi ptr [ %26, %24 ], [ %7, %5 ]
  %.0 = phi ptr [ %15, %24 ], [ %0, %5 ]
  %16 = load i64, ptr %15, align 8, !tbaa !32
  %.not33 = icmp ult i64 %16, %4
  br i1 %.not33, label %24, label %17

17:                                               ; preds = %.preheader
  %18 = getelementptr inbounds nuw i8, ptr %.0, i64 8
  %19 = getelementptr inbounds nuw i8, ptr %15, i64 8
  %20 = load ptr, ptr %19, align 8, !tbaa !33
  store ptr %20, ptr %18, align 8, !tbaa !33
  %21 = getelementptr inbounds nuw i8, ptr %0, i64 24
  %22 = load ptr, ptr %21, align 8, !tbaa !33
  store ptr %22, ptr %19, align 8, !tbaa !33
  store ptr %15, ptr %21, align 8, !tbaa !33
  %23 = getelementptr inbounds nuw i8, ptr %15, i64 16
  br label %_ZN13duckdb_yyjsonL14dyn_size_alignEPm.exit

24:                                               ; preds = %.preheader
  %25 = getelementptr inbounds nuw i8, ptr %15, i64 8
  %26 = load ptr, ptr %25, align 8, !tbaa !33
  %.not34 = icmp eq ptr %26, null
  br i1 %.not34, label %27, label %.preheader, !llvm.loop !34

27:                                               ; preds = %24
  %28 = tail call noalias noundef ptr @realloc(ptr noundef nonnull %15, i64 noundef %4) #30
  %.not35 = icmp eq ptr %28, null
  br i1 %.not35, label %_ZN13duckdb_yyjsonL14dyn_size_alignEPm.exit, label %29, !prof !3

29:                                               ; preds = %27
  %30 = getelementptr inbounds nuw i8, ptr %.0, i64 8
  store ptr null, ptr %30, align 8, !tbaa !33
  store i64 %4, ptr %28, align 8, !tbaa !32
  %31 = getelementptr inbounds nuw i8, ptr %0, i64 24
  %32 = load ptr, ptr %31, align 8, !tbaa !33
  %33 = getelementptr inbounds nuw i8, ptr %28, i64 8
  store ptr %32, ptr %33, align 8, !tbaa !33
  store ptr %28, ptr %31, align 8, !tbaa !33
  %34 = getelementptr inbounds nuw i8, ptr %28, i64 16
  br label %_ZN13duckdb_yyjsonL14dyn_size_alignEPm.exit

_ZN13duckdb_yyjsonL14dyn_size_alignEPm.exit:      ; preds = %2, %27, %8, %29, %17, %10
  %.029 = phi ptr [ %23, %17 ], [ %34, %29 ], [ %14, %10 ], [ null, %8 ], [ null, %27 ], [ null, %2 ]
  ret ptr %.029
}